target datalayout = "e-m:e-p270:32:32-p271:32:32-p272:64:64-i64:64-i128:128-f80:128-n8:16:32:64-S128"
target triple = "x86_64-pc-linux-gnu"

%"struct.std::nothrow_t" = type { i8 }
%struct.__jmp_buf_tag = type { [8 x i64], i32, %struct.__sigset_t }
%struct.__sigset_t = type { [16 x i64] }
%struct.NewHook = type { i8 }

@_ZN6google10g_new_hookE = hidden global ptr null, align 8
@_ZSt7nothrow = external global %"struct.std::nothrow_t", align 1
@_ZTISt9bad_alloc = external constant ptr
@stderr = external global ptr, align 8
@_ZN6googleL14g_called_abortE = internal global i8 0, align 1
@_ZN6google19g_logging_fail_funcE = external global ptr, align 8
@_ZN6googleL9g_jmp_bufE = internal global [1 x %struct.__jmp_buf_tag] zeroinitializer, align 16
@.str.47 = private unnamed_addr constant [30 x i8] c"Function didn't die (%s): %s\0A\00", align 1
@.str.48 = private unnamed_addr constant [15 x i8] c"unexpected new\00", align 1
@.str.49 = private unnamed_addr constant [16 x i8] c"{ allocInt(); }\00", align 1
@_ZTVSt9bad_alloc = external unnamed_addr constant { [5 x ptr] }, align 8
@_ZTVSt9exception = external unnamed_addr constant { [5 x ptr] }, align 8

; Function Attrs: mustprogress nounwind uwtable
define linkonce_odr hidden void @_ZNSt9exceptionC2Ev(ptr noundef nonnull align 8 dereferenceable(8) %0) unnamed_addr #5 comdat align 2 {
  %2 = alloca ptr, align 8
  store ptr %0, ptr %2, align 8
  %3 = load ptr, ptr %2, align 8
  store ptr getelementptr inbounds ({ [5 x ptr] }, ptr @_ZTVSt9exception, i32 0, i32 0, i32 2), ptr %3, align 8
  ret void
}

; Function Attrs: mustprogress nounwind uwtable
define linkonce_odr hidden void @_ZNSt9bad_allocC2Ev(ptr noundef nonnull align 8 dereferenceable(8) %0) unnamed_addr #5 comdat align 2 {
  %2 = alloca ptr, align 8
  store ptr %0, ptr %2, align 8
  %3 = load ptr, ptr %2, align 8
  call void @_ZNSt9exceptionC2Ev(ptr noundef nonnull align 8 dereferenceable(8) %3) #3
  store ptr getelementptr inbounds ({ [5 x ptr] }, ptr @_ZTVSt9bad_alloc, i32 0, i32 0, i32 2), ptr %3, align 8
  ret void
}

; Function Attrs: mustprogress nobuiltin nounwind allocsize(0) uwtable
define dso_local noalias noundef ptr @_ZnwmRKSt9nothrow_t(i64 noundef %0, ptr noundef nonnull align 1 dereferenceable(1) %1) #6 personality ptr @__gxx_personality_v0 {
  %3 = alloca i64, align 8
  %4 = alloca ptr, align 8
  store i64 %0, ptr %3, align 8
  store ptr %1, ptr %4, align 8
  %5 = load ptr, ptr @_ZN6google10g_new_hookE, align 8
  %6 = icmp ne ptr %5, null
  br i1 %6, label %7, label %10

7:                                                ; preds = %2
  %8 = load ptr, ptr @_ZN6google10g_new_hookE, align 8
  invoke void %8()
          to label %9 unwind label %13

9:                                                ; preds = %7
  br label %10

10:                                               ; preds = %9, %2
  %11 = load i64, ptr %3, align 8
  %12 = call noalias ptr @malloc(i64 noundef %11) #25
  ret ptr %12

13:                                               ; preds = %7
  %14 = landingpad { ptr, i32 }
          catch ptr null
  %15 = extractvalue { ptr, i32 } %14, 0
  call void @__clang_call_terminate(ptr %15) #24
  unreachable
}

; Function Attrs: mustprogress nobuiltin allocsize(0) uwtable
define dso_local noundef nonnull ptr @_Znwm(i64 noundef %0) #9 {
  %2 = alloca i64, align 8
  %3 = alloca ptr, align 8
  store i64 %0, ptr %2, align 8
  %4 = load i64, ptr %2, align 8
  %5 = call noalias noundef ptr @_ZnwmRKSt9nothrow_t(i64 noundef %4, ptr noundef nonnull align 1 dereferenceable(1) @_ZSt7nothrow) #25
  store ptr %5, ptr %3, align 8
  %6 = load ptr, ptr %3, align 8
  %7 = icmp eq ptr %6, null
  br i1 %7, label %8, label %10

8:                                                ; preds = %1
  %9 = call ptr @__cxa_allocate_exception(i64 8) #3
  call void @_ZNSt9bad_allocC2Ev(ptr noundef nonnull align 8 dereferenceable(8) %9) #3
  call void @__cxa_throw(ptr %9, ptr @_ZTISt9bad_alloc, ptr @_ZNSt9bad_allocD1Ev) #26
  unreachable

10:                                               ; preds = %1
  %11 = load ptr, ptr %3, align 8
  ret ptr %11
}

; Function Attrs: mustprogress nounwind uwtable
define linkonce_odr hidden void @_ZN7NewHookD2Ev(ptr noundef nonnull align 1 dereferenceable(1) %0) unnamed_addr #5 comdat align 2 {
  %2 = alloca ptr, align 8
  store ptr %0, ptr %2, align 8
  store ptr null, ptr @_ZN6google10g_new_hookE, align 8
  ret void
}

; Function Attrs: mustprogress uwtable
define internal noundef ptr @_ZN12_GLOBAL__N_18allocIntEv() #4 {
  %1 = call noalias noundef nonnull ptr @_Znwm(i64 noundef 4) #29
  ret ptr %1
}

; Function Attrs: mustprogress nounwind uwtable
define linkonce_odr hidden void @_ZN7NewHookC2Ev(ptr noundef nonnull align 1 dereferenceable(1) %0) unnamed_addr #5 comdat align 2 {
  %2 = alloca ptr, align 8
  store ptr %0, ptr %2, align 8
  store ptr @_ZL14NoAllocNewHookv, ptr @_ZN6google10g_new_hookE, align 8
  ret void
}

; Function Attrs: mustprogress uwtable
define hidden void @_ZN32DeathNoAllocNewHook_logging_Test8TestBodyEv(ptr noundef nonnull align 8 dereferenceable(16) %0) unnamed_addr #4 align 2 personality ptr @__gxx_personality_v0 {
  %2 = alloca ptr, align 8
  %3 = alloca %struct.NewHook, align 1
  %4 = alloca ptr, align 8
  %5 = alloca ptr, align 8
  %6 = alloca i32, align 4
  store ptr %0, ptr %2, align 8
  call void @_ZN7NewHookC2Ev(ptr noundef nonnull align 1 dereferenceable(1) %3)
  br label %7

7:                                                ; preds = %1
  store i8 0, ptr @_ZN6googleL14g_called_abortE, align 1
  %8 = load ptr, ptr @_ZN6google19g_logging_fail_funcE, align 8
  store ptr %8, ptr %4, align 8
  store ptr @_ZN6googleL11CalledAbortEv, ptr @_ZN6google19g_logging_fail_funcE, align 8
  %9 = call i32 @_setjmp(ptr noundef @_ZN6googleL9g_jmp_bufE) #31
  %10 = icmp ne i32 %9, 0
  br i1 %10, label %18, label %11

11:                                               ; preds = %7
  %12 = invoke noundef ptr @_ZN12_GLOBAL__N_18allocIntEv()
          to label %13 unwind label %14

13:                                               ; preds = %11
  br label %18

14:                                               ; preds = %11
  %15 = landingpad { ptr, i32 }
          cleanup
  %16 = extractvalue { ptr, i32 } %15, 0
  store ptr %16, ptr %5, align 8
  %17 = extractvalue { ptr, i32 } %15, 1
  store i32 %17, ptr %6, align 4
  call void @_ZN7NewHookD2Ev(ptr noundef nonnull align 1 dereferenceable(1) %3) #3
  br label %28

18:                                               ; preds = %13, %7
  %19 = load ptr, ptr %4, align 8
  store ptr %19, ptr @_ZN6google19g_logging_fail_funcE, align 8
  %20 = load i8, ptr @_ZN6googleL14g_called_abortE, align 1
  %21 = trunc i8 %20 to i1
  br i1 %21, label %25, label %22

22:                                               ; preds = %18
  %23 = load ptr, ptr @stderr, align 8
  %24 = call i32 (ptr, ptr, ...) @fprintf(ptr noundef %23, ptr noundef @.str.47, ptr noundef @.str.48, ptr noundef @.str.49) #3
  call void @exit(i32 noundef 1) #24
  unreachable

25:                                               ; preds = %18
  br label %26

26:                                               ; preds = %25
  br label %27

27:                                               ; preds = %26
  call void @_ZN7NewHookD2Ev(ptr noundef nonnull align 1 dereferenceable(1) %3) #3
  ret void

28:                                               ; preds = %14
  %29 = load ptr, ptr %5, align 8
  %30 = load i32, ptr %6, align 4
  %31 = insertvalue { ptr, i32 } poison, ptr %29, 0
  %32 = insertvalue { ptr, i32 } %31, i32 %30, 1
  resume { ptr, i32 } %32
}