; Function Attrs: mustprogress uwtable
define hidden void @_ZN32DeathNoAllocNewHook_logging_Test8TestBodyEv(ptr nocapture nonnull readnone align 8 %0) unnamed_addr #3 align 2 personality ptr @__gxx_personality_v0 {
  store ptr @_ZL14NoAllocNewHookv, ptr @_ZN6google10g_new_hookE, align 8
  store i1 false, ptr @_ZN6googleL14g_called_abortE, align 1
  %2 = load ptr, ptr @_ZN6google19g_logging_fail_funcE, align 8
  store ptr @_ZN6googleL11CalledAbortEv, ptr @_ZN6google19g_logging_fail_funcE, align 8
  %3 = call i32 @_setjmp(ptr noundef nonnull @_ZN6googleL9g_jmp_bufE) #42
  %.not = icmp eq i32 %3, 0
  br i1 %.not, label %4, label %_ZN12_GLOBAL__N_18allocIntEv.exit

4:                                                ; preds = %1
  %5 = load ptr, ptr @_ZN6google10g_new_hookE, align 8
  %.not.i.i.i = icmp eq ptr %5, null
  br i1 %.not.i.i.i, label %_ZN12_GLOBAL__N_18allocIntEv.exit, label %6

6:                                                ; preds = %4
  invoke void %5()
          to label %_ZN12_GLOBAL__N_18allocIntEv.exit unwind label %7

7:                                                ; preds = %6
  %8 = landingpad { ptr, i32 }
          catch ptr null
  %9 = extractvalue { ptr, i32 } %8, 0
  call void @__clang_call_terminate(ptr %9) #37
  unreachable

_ZN12_GLOBAL__N_18allocIntEv.exit:                ; preds = %4, %6, %1
  store ptr %2, ptr @_ZN6google19g_logging_fail_funcE, align 8
  %.b2 = load i1, ptr @_ZN6googleL14g_called_abortE, align 1
  br i1 %.b2, label %13, label %10

10:                                               ; preds = %_ZN12_GLOBAL__N_18allocIntEv.exit
  %11 = load ptr, ptr @stderr, align 8
  %12 = call i32 (ptr, ptr, ...) @fprintf(ptr noundef %11, ptr noundef nonnull @.str.47, ptr noundef nonnull @.str.48, ptr noundef nonnull @.str.49) #43
  call void @exit(i32 noundef 1) #37
  unreachable

13:                                               ; preds = %_ZN12_GLOBAL__N_18allocIntEv.exit
  store ptr null, ptr @_ZN6google10g_new_hookE, align 8
  ret void
}